(lp1
((I1
I1
tp2
F0.1498059866962306
tp3
a((I0
I2
tp4
F0.12001108647450111
tp5
a((I0
I0
tp6
F0.11765521064301553
tp7
a((I2
I2
tp8
F0.11710088691796008
tp9
a((I2
I0
tp10
F0.11488359201773836
tp11
a((I0
I1
tp12
F0.098669623059866957
tp13
a((I1
I2
tp14
F0.097283813747228387
tp15
a((I2
I1
tp16
F0.095066518847006648
tp17
a((I1
I0
tp18
F0.089523281596452328
tp19
a.