(lp1
((I1
I1
tp2
F0.143058690744921
tp3
a((I0
I0
tp4
F0.12104966139954854
tp5
a((I2
I2
tp6
F0.12048532731376975
tp7
a((I0
I2
tp8
F0.12020316027088036
tp9
a((I2
I0
tp10
F0.11709932279909707
tp11
a((I1
I2
tp12
F0.096783295711060952
tp13
a((I2
I1
tp14
F0.096218961625282165
tp15
a((I0
I1
tp16
F0.095936794582392779
tp17
a((I1
I0
tp18
F0.08916478555304741
tp19
a.