(lp1
((I1
I1
tp2
F0.14447913709906329
tp3
a((I2
I0
tp4
F0.12418393414703378
tp5
a((I0
I2
tp6
F0.12120351972750497
tp7
a((I2
I2
tp8
F0.11964235026965654
tp9
a((I0
I0
tp10
F0.11935850127732046
tp11
a((I1
I2
tp12
F0.096366732898098217
tp13
a((I1
I0
tp14
F0.092108998013057053
tp15
a((I2
I1
tp16
F0.091399375532216859
tp17
a((I0
I1
tp18
F0.09125745103604882
tp19
a.