(lp1
((I1
I1
tp2
F0.15686274509803921
tp3
a((I0
I0
tp4
F0.13445378151260504
tp5
a((I2
I0
tp6
F0.12044817927170869
tp7
a((I0
I2
tp8
F0.11204481792717087
tp9
a((I2
I2
tp10
F0.10644257703081232
tp11
a((I0
I1
tp12
F0.10364145658263306
tp13
a((I1
I2
tp14
F0.098039215686274508
tp15
a((I2
I1
tp16
F0.089635854341736695
tp17
a((I1
I0
tp18
F0.078431372549019607
tp19
a.